Certificate:
    Data:
        Version: 3 (0x2)
        Serial Number:
            5d:e1:e8:5c:26:91:39:54:08:94:59:cc:b8:d2:76:d7
        Signature Algorithm: sha256WithRSAEncryption
        Issuer: C = US, O = Heroku, OU = Data, ST = CA, CN = service.shogun.heroku.com, L = San Francisco
        Validity
            Not Before: Feb 10 03:21:32 2024 GMT
            Not After : Mar 11 04:21:32 2025 GMT
        Subject: CN = f8mluocrq6b7l.service.shogun.heroku.com
        Subject Public Key Info:
            Public Key Algorithm: rsaEncryption
                Public-Key: (2048 bit)
                Modulus:
                    00:d1:f1:2c:dd:30:76:bc:d8:45:e8:38:30:91:9d:
                    e5:4a:19:d4:50:9b:fa:ea:41:05:42:1f:c0:63:d6:
                    2d:03:29:35:26:08:3c:3d:7c:a0:da:d6:db:10:3d:
                    e7:bb:d0:b2:6c:ba:c7:39:2d:56:3e:a3:ec:62:9a:
                    0f:32:aa:fa:39:c8:8a:88:4c:fa:a4:23:98:97:42:
                    2c:d4:31:28:76:cb:1f:52:ec:bd:58:44:1b:07:ad:
                    40:de:98:2b:11:e7:61:d2:5a:f3:c4:ca:42:9d:13:
                    bf:41:9c:81:40:28:8e:4f:b0:e0:67:de:cb:7f:37:
                    23:9e:c8:76:cc:9c:c3:19:d4:88:98:7f:3d:28:90:
                    9f:f5:37:75:4f:25:d6:79:3e:c5:3b:03:09:77:8e:
                    34:bf:2f:6b:8f:2f:f5:27:dd:66:9c:5b:8b:3b:de:
                    4c:d5:28:1c:6b:f6:69:bc:df:07:e1:bf:1a:43:b8:
                    ec:a3:33:e8:76:a4:f4:b7:1e:af:25:b7:22:eb:4f:
                    42:46:d8:f0:b0:c6:54:3e:ad:78:4f:7b:8d:69:18:
                    ab:30:0d:f9:ec:d6:ba:e0:1e:7e:c4:ec:a5:92:20:
                    4a:52:65:32:2d:dc:d8:e3:d6:c5:fb:9c:9f:91:18:
                    df:04:4c:0a:6b:27:19:a9:aa:13:a1:21:12:31:9a:
                    98:ab
                Exponent: 65537 (0x10001)
        X509v3 extensions:
            X509v3 Subject Alternative Name: 
                DNS:f8mluocrq6b7l.service.shogun.heroku.com
            X509v3 Basic Constraints: 
                CA:FALSE
            X509v3 Authority Key Identifier: 
                04:5D:6D:4D:B5:3E:AD:D7:6B:F6:CA:4E:18:74:B6:CC:E7:30:C9:D7
            X509v3 Subject Key Identifier: 
                0E:E8:14:59:E5:84:C7:4E:6F:69:1F:C1:B7:23:AE:7B:73:43:87:BF
            X509v3 Key Usage: critical
                Digital Signature, Key Encipherment
            X509v3 Extended Key Usage: 
                TLS Web Server Authentication, TLS Web Client Authentication
            X509v3 CRL Distribution Points: 
                Full Name:
                  URI:http://us-west-2-service.shogun.heroku.com-crl.s3.us-west-2.amazonaws.com/crl/0a17ce04-32e3-4925-b892-627480e494d7.crl
    Signature Algorithm: sha256WithRSAEncryption
    Signature Value:
        5a:16:b4:8b:52:9c:af:a1:fd:2b:fd:0d:9e:5b:bb:b1:0c:1e:
        8c:72:cb:b5:7c:bf:0b:87:8c:38:d9:d1:e0:d8:a5:89:a0:f1:
        c6:4a:d4:e9:a7:2c:b3:a2:3a:8c:97:e9:1b:47:bc:97:be:d7:
        49:1d:ca:1a:29:5c:37:af:ee:0c:0b:f1:98:6d:66:c6:3e:d2:
        6c:91:3b:d4:7c:d4:11:c1:a4:b4:85:56:73:b8:d6:2c:cb:d1:
        fc:44:d4:c4:df:29:42:1d:74:c4:3e:08:94:79:5f:91:d4:28:
        4a:b6:9a:f1:8a:ae:21:9f:39:66:3b:c3:9b:3a:80:78:10:2b:
        ac:76:4b:91:ed:ca:38:bc:38:56:c1:07:91:9a:ff:1d:83:0a:
        dc:d4:cc:ca:a2:0c:de:33:e0:fd:79:6a:fa:4d:27:df:4c:a8:
        b1:e4:26:c4:30:4c:68:9a:d9:14:5f:d2:48:96:2f:e6:63:9a:
        ce:64:12:da:59:6a:71:a9:72:d4:52:d3:22:34:d6:e1:06:8f:
        c8:ef:b8:4b:ea:d2:d8:c1:7b:a7:16:f9:a2:62:73:b7:34:4a:
        29:05:ec:48:08:ee:83:f9:77:44:91:7c:41:23:d3:02:07:ae:
        df:af:9a:b5:52:71:36:f2:e2:d3:fe:2f:c1:5c:3f:fa:a8:c4:
        1d:c1:60:ba
-----BEGIN CERTIFICATE-----
MIIEcTCCA1mgAwIBAgIQXeHoXCaROVQIlFnMuNJ21zANBgkqhkiG9w0BAQsFADB2
MQswCQYDVQQGEwJVUzEPMA0GA1UECgwGSGVyb2t1MQ0wCwYDVQQLDAREYXRhMQsw
CQYDVQQIDAJDQTEiMCAGA1UEAwwZc2VydmljZS5zaG9ndW4uaGVyb2t1LmNvbTEW
MBQGA1UEBwwNU2FuIEZyYW5jaXNjbzAeFw0yNDAyMTAwMzIxMzJaFw0yNTAzMTEw
NDIxMzJaMDIxMDAuBgNVBAMMJ2Y4bWx1b2NycTZiN2wuc2VydmljZS5zaG9ndW4u
aGVyb2t1LmNvbTCCASIwDQYJKoZIhvcNAQEBBQADggEPADCCAQoCggEBANHxLN0w
drzYReg4MJGd5UoZ1FCb+upBBUIfwGPWLQMpNSYIPD18oNrW2xA957vQsmy6xzkt
Vj6j7GKaDzKq+jnIiohM+qQjmJdCLNQxKHbLH1LsvVhEGwetQN6YKxHnYdJa88TK
Qp0Tv0GcgUAojk+w4Gfey383I57IdsycwxnUiJh/PSiQn/U3dU8l1nk+xTsDCXeO
NL8va48v9SfdZpxbizveTNUoHGv2abzfB+G/GkO47KMz6Hak9LceryW3IutPQkbY
8LDGVD6teE97jWkYqzAN+ezWuuAefsTspZIgSlJlMi3c2OPWxfucn5EY3wRMCmsn
GamqE6EhEjGamKsCAwEAAaOCAT0wggE5MDIGA1UdEQQrMCmCJ2Y4bWx1b2NycTZi
N2wuc2VydmljZS5zaG9ndW4uaGVyb2t1LmNvbTAJBgNVHRMEAjAAMB8GA1UdIwQY
MBaAFARdbU21Pq3Xa/bKThh0tsznMMnXMB0GA1UdDgQWBBQO6BRZ5YTHTm9pH8G3
I657c0OHvzAOBgNVHQ8BAf8EBAMCBaAwHQYDVR0lBBYwFAYIKwYBBQUHAwEGCCsG
AQUFBwMCMIGIBgNVHR8EgYAwfjB8oHqgeIZ2aHR0cDovL3VzLXdlc3QtMi1zZXJ2
aWNlLnNob2d1bi5oZXJva3UuY29tLWNybC5zMy51cy13ZXN0LTIuYW1hem9uYXdz
LmNvbS9jcmwvMGExN2NlMDQtMzJlMy00OTI1LWI4OTItNjI3NDgwZTQ5NGQ3LmNy
bDANBgkqhkiG9w0BAQsFAAOCAQEAWha0i1Kcr6H9K/0Nnlu7sQwejHLLtXy/C4eM
ONnR4NiliaDxxkrU6acss6I6jJfpG0e8l77XSR3KGilcN6/uDAvxmG1mxj7SbJE7
1HzUEcGktIVWc7jWLMvR/ETUxN8pQh10xD4IlHlfkdQoSraa8YquIZ85ZjvDmzqA
eBArrHZLke3KOLw4VsEHkZr/HYMK3NTMyqIM3jPg/Xlq+k0n30yoseQmxDBMaJrZ
FF/SSJYv5mOazmQS2llqcaly1FLTIjTW4QaPyO+4S+rS2MF7pxb5omJztzRKKQXs
SAjug/l3RJF8QSPTAgeu36+atVJxNvLi0/4vwVw/+qjEHcFgug==
-----END CERTIFICATE-----
